target datalayout = "e-m:e-p270:32:32-p271:32:32-p272:64:64-i64:64-i128:128-f80:128-n8:16:32:64-S128"
target triple = "x86_64-pc-linux-gnu"

%"struct.duckdb::roaring::ContainerCompressionState" = type { i16, i8, i16, i16, i8, ptr, ptr, [2 x ptr], [2 x ptr], [4 x %"struct.duckdb::roaring::RunContainerRLEPair"], [2 x [8 x i16]], i16, [2 x i16], [2 x ptr], ptr, [2 x [248 x i8]], [248 x i8], [2 x [8 x i8]], [8 x i8], ptr, i8, ptr }
%"struct.duckdb::roaring::RunContainerRLEPair" = type { i16, i16 }

; Function Attrs: inlinehint mustprogress nounwind uwtable
define linkonce_odr noundef ptr @_ZN6duckdb10AlignValueILm4EEEPhS1_(ptr noundef %0) #5 comdat {
  %2 = alloca ptr, align 8
  store ptr %0, ptr %2, align 8, !tbaa !18
  %3 = load ptr, ptr %2, align 8, !tbaa !18
  %4 = ptrtoint ptr %3 to i64
  %5 = add i64 %4, 4
  %6 = sub i64 %5, 1
  %7 = and i64 %6, -4
  %8 = inttoptr i64 %7 to ptr
  ret ptr %8
}

; Function Attrs: mustprogress uwtable
define void @_ZN6duckdb7roaring25ContainerCompressionState11OverrideRunERPhm(ptr noundef nonnull align 8 dereferenceable(936) %0, ptr noundef nonnull align 8 dereferenceable(8) %1, i64 noundef %2) #0 align 2 {
  %4 = alloca ptr, align 8
  %5 = alloca ptr, align 8
  %6 = alloca i64, align 8
  %7 = alloca ptr, align 8
  store ptr %0, ptr %4, align 8, !tbaa !331
  store ptr %1, ptr %5, align 8, !tbaa !348
  store i64 %2, ptr %6, align 8, !tbaa !8
  %8 = load ptr, ptr %4, align 8
  %9 = getelementptr inbounds nuw %"struct.duckdb::roaring::ContainerCompressionState", ptr %8, i32 0, i32 21
  store ptr @_ZN6duckdb7roaring9AppendRunERNS0_25ContainerCompressionStateEbt, ptr %9, align 8, !tbaa !347
  %10 = load i64, ptr %6, align 8, !tbaa !8
  %11 = icmp uge i64 %10, 4
  br i1 %11, label %12, label %23

12:                                               ; preds = %3
  %13 = load ptr, ptr %5, align 8, !tbaa !348
  %14 = load ptr, ptr %13, align 8, !tbaa !18
  call void @llvm.memset.p0.i64(ptr align 1 %14, i8 0, i64 8, i1 false)
  %15 = load ptr, ptr %5, align 8, !tbaa !348
  %16 = load ptr, ptr %15, align 8, !tbaa !18
  %17 = getelementptr inbounds nuw %"struct.duckdb::roaring::ContainerCompressionState", ptr %8, i32 0, i32 14
  store ptr %16, ptr %17, align 8, !tbaa !346
  call void @llvm.lifetime.start.p0(i64 8, ptr %7) #19
  %18 = load ptr, ptr %5, align 8, !tbaa !348
  %19 = load ptr, ptr %18, align 8, !tbaa !18
  %20 = getelementptr inbounds nuw i8, ptr %19, i64 8
  store ptr %20, ptr %7, align 8, !tbaa !18
  %21 = load ptr, ptr %7, align 8, !tbaa !18
  %22 = getelementptr inbounds nuw %"struct.duckdb::roaring::ContainerCompressionState", ptr %8, i32 0, i32 6
  store ptr %21, ptr %22, align 8, !tbaa !345
  call void @llvm.lifetime.end.p0(i64 8, ptr %7) #19
  br label %31

23:                                               ; preds = %3
  %24 = load ptr, ptr %5, align 8, !tbaa !348
  %25 = load ptr, ptr %24, align 8, !tbaa !18
  %26 = call noundef ptr @_ZN6duckdb10AlignValueILm4EEEPhS1_(ptr noundef %25)
  %27 = load ptr, ptr %5, align 8, !tbaa !348
  store ptr %26, ptr %27, align 8, !tbaa !18
  %28 = load ptr, ptr %5, align 8, !tbaa !348
  %29 = load ptr, ptr %28, align 8, !tbaa !18
  %30 = getelementptr inbounds nuw %"struct.duckdb::roaring::ContainerCompressionState", ptr %8, i32 0, i32 5
  store ptr %29, ptr %30, align 8, !tbaa !344
  br label %31

31:                                               ; preds = %23, %12
  ret void
}