; Function Attrs: mustprogress nofree norecurse nosync nounwind willreturn memory(write, argmem: readwrite, inaccessiblemem: none) uwtable
define void @_ZN6duckdb7roaring25ContainerCompressionState11OverrideRunERPhm(ptr noundef nonnull writeonly align 8 captures(none) dereferenceable(936) initializes((928, 936)) %0, ptr noundef nonnull align 8 captures(none) dereferenceable(8) %1, i64 noundef %2) local_unnamed_addr #13 align 2 {
  %4 = getelementptr inbounds nuw i8, ptr %0, i64 928
  store ptr @_ZN6duckdb7roaring9AppendRunERNS0_25ContainerCompressionStateEbt, ptr %4, align 8, !tbaa !344
  %5 = icmp ugt i64 %2, 3
  %6 = load ptr, ptr %1, align 8, !tbaa !236
  br i1 %5, label %7, label %11

7:                                                ; preds = %3
  store i64 0, ptr %6, align 1
  %8 = load ptr, ptr %1, align 8, !tbaa !236
  %9 = getelementptr inbounds nuw i8, ptr %0, i64 136
  store ptr %8, ptr %9, align 8, !tbaa !339
  %10 = getelementptr inbounds nuw i8, ptr %8, i64 8
  br label %16

11:                                               ; preds = %3
  %12 = ptrtoint ptr %6 to i64
  %13 = add i64 %12, 3
  %14 = and i64 %13, -4
  %15 = inttoptr i64 %14 to ptr
  store ptr %15, ptr %1, align 8, !tbaa !236
  br label %16

16:                                               ; preds = %11, %7
  %.sink9 = phi i64 [ 16, %11 ], [ 24, %7 ]
  %.sink = phi ptr [ %15, %11 ], [ %10, %7 ]
  %17 = getelementptr inbounds nuw i8, ptr %0, i64 %.sink9
  store ptr %.sink, ptr %17, align 8, !tbaa !351
  ret void
}